target datalayout = "e-m:e-p270:32:32-p271:32:32-p272:64:64-i64:64-i128:128-f80:128-n8:16:32:64-S128"
target triple = "x86_64-pc-linux-gnu"

@.str.1 = private unnamed_addr constant [12 x i8] c"sem_destroy\00", align 1

; Function Attrs: nounwind uwtable
define dso_local void @PyThread_free_lock(ptr noundef %0) #0 {
  %2 = alloca ptr, align 8
  %3 = alloca ptr, align 8
  %4 = alloca i32, align 4
  %5 = alloca i32, align 4
  %6 = alloca i32, align 4
  store ptr %0, ptr %2, align 8, !tbaa !176
  call void @llvm.lifetime.start.p0(i64 8, ptr %3) #11
  %7 = load ptr, ptr %2, align 8, !tbaa !176
  store ptr %7, ptr %3, align 8, !tbaa !176
  call void @llvm.lifetime.start.p0(i64 4, ptr %4) #11
  call void @llvm.lifetime.start.p0(i64 4, ptr %5) #11
  store i32 0, ptr %5, align 4, !tbaa !175
  %8 = load ptr, ptr %3, align 8, !tbaa !176
  %9 = icmp ne ptr %8, null
  br i1 %9, label %11, label %10

10:                                               ; preds = %1
  store i32 1, ptr %6, align 4
  br label %19

11:                                               ; preds = %1
  %12 = load ptr, ptr %3, align 8, !tbaa !176
  %13 = call i32 @sem_destroy(ptr noundef %12) #11
  store i32 %13, ptr %4, align 4, !tbaa !175
  %14 = load i32, ptr %4, align 4, !tbaa !175
  %15 = icmp ne i32 %14, 0
  br i1 %15, label %16, label %17

16:                                               ; preds = %11
  call void @perror(ptr noundef @.str.1)
  store i32 1, ptr %5, align 4, !tbaa !175
  br label %17

17:                                               ; preds = %16, %11
  %18 = load ptr, ptr %3, align 8, !tbaa !176
  call void @PyMem_RawFree(ptr noundef %18)
  store i32 0, ptr %6, align 4
  br label %19

19:                                               ; preds = %17, %10
  call void @llvm.lifetime.end.p0(i64 4, ptr %5) #11
  call void @llvm.lifetime.end.p0(i64 4, ptr %4) #11
  call void @llvm.lifetime.end.p0(i64 8, ptr %3) #11
  %20 = load i32, ptr %6, align 4
  switch i32 %20, label %22 [
    i32 0, label %21
    i32 1, label %21
  ]

21:                                               ; preds = %19, %19
  ret void

22:                                               ; preds = %19
  unreachable
}