; Function Attrs: nounwind uwtable
define dso_local void @PyThread_free_lock(ptr noundef %0) local_unnamed_addr #0 {
  %.not = icmp eq ptr %0, null
  br i1 %.not, label %6, label %2

2:                                                ; preds = %1
  %3 = tail call i32 @sem_destroy(ptr noundef nonnull %0) #13
  %.not4 = icmp eq i32 %3, 0
  br i1 %.not4, label %5, label %4

4:                                                ; preds = %2
  tail call void @perror(ptr noundef nonnull @.str.1) #16
  br label %5

5:                                                ; preds = %4, %2
  tail call void @PyMem_RawFree(ptr noundef nonnull %0) #13
  br label %6

6:                                                ; preds = %1, %5
  ret void
}